target datalayout = "e-m:e-p270:32:32-p271:32:32-p272:64:64-i64:64-i128:128-f80:128-n8:16:32:64-S128"
target triple = "x86_64-pc-linux-gnu"

; Function Attrs: nounwind sspstrong uwtable
define internal i64 @cc_table_memsize(ptr noundef %0) #0 {
  %2 = alloca ptr, align 8
  %3 = alloca i64, align 8
  store ptr %0, ptr %2, align 8, !tbaa !262
  call void @llvm.lifetime.start.p0(i64 8, ptr %3) #6
  %4 = load ptr, ptr %2, align 8, !tbaa !262
  %5 = call i64 @rb_id_table_memsize(ptr noundef %4)
  store i64 %5, ptr %3, align 8, !tbaa !18
  %6 = load ptr, ptr %2, align 8, !tbaa !262
  call void @rb_id_table_foreach_values(ptr noundef %6, ptr noundef @cc_table_memsize_i, ptr noundef %3)
  %7 = load i64, ptr %3, align 8, !tbaa !18
  call void @llvm.lifetime.end.p0(i64 8, ptr %3) #6
  ret i64 %7
}