; Function Attrs: nounwind sspstrong uwtable
define internal fastcc i64 @cc_table_memsize(ptr noundef nonnull %0) unnamed_addr #0 {
  %2 = alloca i64, align 8
  call void @llvm.lifetime.start.p0(i64 8, ptr nonnull %2) #7
  %3 = tail call i64 @rb_id_table_memsize(ptr noundef nonnull %0) #7
  store i64 %3, ptr %2, align 8, !tbaa !93
  call void @rb_id_table_foreach_values(ptr noundef nonnull %0, ptr noundef nonnull @cc_table_memsize_i, ptr noundef nonnull %2) #7
  %4 = load i64, ptr %2, align 8, !tbaa !93
  call void @llvm.lifetime.end.p0(i64 8, ptr nonnull %2) #7
  ret i64 %4
}